; Function Attrs: mustprogress nofree norecurse nosync nounwind willreturn memory(argmem: read) uwtable
define hidden noundef range(i32 0, 2) i32 @_ZNK19OpenColorIO_v2_5dev19FixedFunctionOpData12getDirectionEv(ptr noundef nonnull readonly align 8 captures(none) dereferenceable(200) %0) local_unnamed_addr #9 align 2 {
  %2 = getelementptr inbounds nuw i8, ptr %0, i64 168
  %3 = load i32, ptr %2, align 8, !tbaa !15
  %switch.tableidx = add i32 %3, -1
  %4 = icmp ult i32 %switch.tableidx, 35
  br i1 %4, label %switch.lookup, label %6

switch.lookup:                                    ; preds = %1
  %5 = zext nneg i32 %switch.tableidx to i64
  %switch.gep = getelementptr inbounds nuw [35 x i32], ptr @switch.table._ZN19OpenColorIO_v2_5dev19FixedFunctionOpData12setDirectionENS_18TransformDirectionE, i64 0, i64 %5
  %switch.load = load i32, ptr %switch.gep, align 4
  br label %6

6:                                                ; preds = %switch.lookup, %1
  %.0 = phi i32 [ 0, %1 ], [ %switch.load, %switch.lookup ]
  ret i32 %.0
}